; Function Attrs: nounwind uwtable
define noalias ptr @l_Array_foldlMUnsafe_fold___at_Lean_Compiler_LCNF_JoinPointFinder_replace___spec__7(ptr noundef readonly captures(none) %0, i64 noundef %1, i64 noundef %2, ptr noundef %3, ptr noundef %4, ptr noundef %5, ptr noundef %6, ptr noundef %7, ptr noundef %8) local_unnamed_addr #1 {
  %.not52 = icmp eq i64 %1, %2
  br i1 %.not52, label %._crit_edge, label %.lr.ph

.lr.ph:                                           ; preds = %9
  %10 = getelementptr inbounds nuw i8, ptr %0, i64 24
  br label %11

11:                                               ; preds = %.lr.ph, %55
  %.02955 = phi i64 [ %1, %.lr.ph ], [ %56, %55 ]
  %.03154 = phi ptr [ %3, %.lr.ph ], [ %24, %55 ]
  %.03353 = phi ptr [ %8, %.lr.ph ], [ %34, %55 ]
  %12 = getelementptr inbounds nuw [0 x ptr], ptr %10, i64 0, i64 %.02955
  %13 = load ptr, ptr %12, align 8, !tbaa !4
  %14 = ptrtoint ptr %13 to i64
  %15 = and i64 %14, 1
  %.not.i36 = icmp eq i64 %15, 0
  br i1 %.not.i36, label %16, label %lean_array_uget.exit

16:                                               ; preds = %11
  %.val.i.i = load i32, ptr %13, align 4, !tbaa !8
  %17 = icmp sgt i32 %.val.i.i, 0
  br i1 %17, label %18, label %20, !prof !11

18:                                               ; preds = %16
  %19 = add nuw i32 %.val.i.i, 1
  store i32 %19, ptr %13, align 4, !tbaa !8
  br label %lean_array_uget.exit

20:                                               ; preds = %16
  %.not.i.i = icmp eq i32 %.val.i.i, 0
  br i1 %.not.i.i, label %lean_array_uget.exit, label %21

21:                                               ; preds = %20
  tail call void @lean_inc_ref_cold(ptr noundef nonnull %13) #5
  br label %lean_array_uget.exit

lean_array_uget.exit:                             ; preds = %11, %18, %20, %21
  %22 = tail call ptr @l_Std_DHashMap_Internal_AssocList_foldlM___at_Lean_Compiler_LCNF_JoinPointFinder_replace___spec__6(ptr noundef %.03154, ptr noundef %13, ptr noundef %4, ptr noundef %5, ptr noundef %6, ptr noundef %7, ptr noundef %.03353)
  %23 = getelementptr inbounds nuw i8, ptr %22, i64 8
  %24 = load ptr, ptr %23, align 8, !tbaa !4
  %25 = ptrtoint ptr %24 to i64
  %26 = and i64 %25, 1
  %.not49 = icmp eq i64 %26, 0
  br i1 %.not49, label %27, label %lean_inc.exit35

27:                                               ; preds = %lean_array_uget.exit
  %.val.i = load i32, ptr %24, align 4, !tbaa !8
  %28 = icmp sgt i32 %.val.i, 0
  br i1 %28, label %29, label %31, !prof !11

29:                                               ; preds = %27
  %30 = add nuw i32 %.val.i, 1
  store i32 %30, ptr %24, align 4, !tbaa !8
  br label %lean_inc.exit35

31:                                               ; preds = %27
  %.not.i37 = icmp eq i32 %.val.i, 0
  br i1 %.not.i37, label %lean_inc.exit35, label %32

32:                                               ; preds = %31
  tail call void @lean_inc_ref_cold(ptr noundef nonnull %24) #5
  br label %lean_inc.exit35

lean_inc.exit35:                                  ; preds = %32, %31, %29, %lean_array_uget.exit
  %33 = getelementptr inbounds nuw i8, ptr %22, i64 16
  %34 = load ptr, ptr %33, align 8, !tbaa !4
  %35 = ptrtoint ptr %34 to i64
  %36 = and i64 %35, 1
  %.not50 = icmp eq i64 %36, 0
  br i1 %.not50, label %37, label %lean_inc.exit

37:                                               ; preds = %lean_inc.exit35
  %.val.i38 = load i32, ptr %34, align 4, !tbaa !8
  %38 = icmp sgt i32 %.val.i38, 0
  br i1 %38, label %39, label %41, !prof !11

39:                                               ; preds = %37
  %40 = add nuw i32 %.val.i38, 1
  store i32 %40, ptr %34, align 4, !tbaa !8
  br label %lean_inc.exit

41:                                               ; preds = %37
  %.not.i39 = icmp eq i32 %.val.i38, 0
  br i1 %.not.i39, label %lean_inc.exit, label %42

42:                                               ; preds = %41
  tail call void @lean_inc_ref_cold(ptr noundef nonnull %34) #5
  br label %lean_inc.exit

lean_inc.exit:                                    ; preds = %42, %41, %39, %lean_inc.exit35
  %43 = ptrtoint ptr %22 to i64
  %44 = and i64 %43, 1
  %.not51 = icmp eq i64 %44, 0
  br i1 %.not51, label %45, label %55

45:                                               ; preds = %lean_inc.exit
  %46 = load i32, ptr %22, align 4, !tbaa !8
  %47 = icmp sgt i32 %46, 1
  br i1 %47, label %48, label %50, !prof !11

48:                                               ; preds = %45
  %49 = add nsw i32 %46, -1
  store i32 %49, ptr %22, align 4, !tbaa !8
  br label %55

50:                                               ; preds = %45
  %.not.i = icmp eq i32 %46, 0
  br i1 %.not.i, label %55, label %51

51:                                               ; preds = %50
  tail call void @lean_dec_ref_cold(ptr noundef nonnull %22) #5
  br label %55

._crit_edge:                                      ; preds = %55, %9
  %.033.lcssa = phi ptr [ %8, %9 ], [ %34, %55 ]
  %.031.lcssa = phi ptr [ %3, %9 ], [ %24, %55 ]
  tail call void @lean_inc_heartbeat() #5
  %52 = tail call noalias ptr @mi_malloc_small(i64 noundef 24) #5
  %53 = icmp eq ptr %52, null
  br i1 %53, label %54, label %57

54:                                               ; preds = %._crit_edge
  tail call void @lean_internal_panic_out_of_memory() #6
  unreachable

55:                                               ; preds = %lean_inc.exit, %48, %50, %51
  %56 = add i64 %.02955, 1
  %.not = icmp eq i64 %56, %2
  br i1 %.not, label %._crit_edge, label %11

57:                                               ; preds = %._crit_edge
  %58 = getelementptr inbounds nuw i8, ptr %52, i64 4
  store i32 1, ptr %52, align 4, !tbaa !8
  store i32 131096, ptr %58, align 4
  %59 = getelementptr inbounds nuw i8, ptr %52, i64 8
  store ptr %.031.lcssa, ptr %59, align 8, !tbaa !4
  %60 = getelementptr inbounds nuw i8, ptr %52, i64 16
  store ptr %.033.lcssa, ptr %60, align 8, !tbaa !4
  ret ptr %52
}